target datalayout = "e-m:e-p270:32:32-p271:32:32-p272:64:64-i64:64-i128:128-f80:128-n8:16:32:64-S128"
target triple = "x86_64-pc-linux-gnu"

%struct._zend_array = type { %struct._zend_refcounted_h, %union.anon.0, i32, %union.anon.1, i32, i32, i32, i32, i64, ptr }
%struct._zend_refcounted_h = type { i32, %union.anon }
%union.anon = type { i32 }
%union.anon.0 = type { i32 }
%union.anon.1 = type { ptr }
%struct._phar_archive_data = type { ptr, i32, ptr, i32, ptr, i32, [12 x i8], i64, %struct._zend_array, %struct._zend_array, %struct._zend_array, i32, i32, i32, ptr, ptr, i32, i32, i32, ptr, %struct._phar_metadata_tracker, i32, i16 }
%struct._phar_metadata_tracker = type { %struct._zval_struct, ptr }
%struct._zval_struct = type { %union._zend_value, %union.anon.3, %union.anon.6 }
%union._zend_value = type { i64 }
%union.anon.3 = type { i32 }
%union.anon.6 = type { i32 }
%struct._phar_entry_info = type { i32, i32, i32, i32, i32, i32, %struct._phar_metadata_tracker, ptr, i32, i64, i64, i64, ptr, ptr, i32, ptr, ptr, ptr, i8, i32, i16, i16 }
%struct._zend_string = type { %struct._zend_refcounted_h, i64, i64, [1 x i8] }

@.str.25 = private unnamed_addr constant [44 x i8] c"phar error: unable to create temporary file\00", align 1
@.str.47 = private unnamed_addr constant [69 x i8] c"phar tar error: unable to write metadata to magic metadata file \22%s\22\00", align 1

; Function Attrs: nounwind uwtable
define internal i32 @phar_tar_setmetadata(ptr noundef %0, ptr noundef %1, ptr noundef %2) #0 {
  %4 = alloca i32, align 4
  %5 = alloca ptr, align 8
  %6 = alloca ptr, align 8
  %7 = alloca ptr, align 8
  %8 = alloca ptr, align 8
  %9 = alloca i32, align 4
  store ptr %0, ptr %5, align 8, !tbaa !89
  store ptr %1, ptr %6, align 8, !tbaa !57
  store ptr %2, ptr %7, align 8, !tbaa !22
  call void @llvm.lifetime.start.p0(i64 8, ptr %8) #14
  %10 = load ptr, ptr %6, align 8, !tbaa !57
  %11 = getelementptr inbounds nuw %struct._phar_entry_info, ptr %10, i32 0, i32 6
  %12 = load ptr, ptr %5, align 8, !tbaa !89
  %13 = load ptr, ptr %6, align 8, !tbaa !57
  %14 = getelementptr inbounds nuw %struct._phar_entry_info, ptr %13, i32 0, i32 21
  %15 = load i16, ptr %14, align 2
  %16 = lshr i16 %15, 8
  %17 = and i16 %16, 1
  %18 = zext i16 %17 to i32
  %19 = icmp ne i32 %18, 0
  call void @phar_metadata_tracker_copy(ptr noundef %11, ptr noundef %12, i1 noundef zeroext %19)
  %20 = load ptr, ptr %6, align 8, !tbaa !57
  %21 = getelementptr inbounds nuw %struct._phar_entry_info, ptr %20, i32 0, i32 6
  %22 = load ptr, ptr %6, align 8, !tbaa !57
  %23 = getelementptr inbounds nuw %struct._phar_entry_info, ptr %22, i32 0, i32 21
  %24 = load i16, ptr %23, align 2
  %25 = lshr i16 %24, 8
  %26 = and i16 %25, 1
  %27 = zext i16 %26 to i32
  %28 = icmp ne i32 %27, 0
  call void @phar_metadata_tracker_try_ensure_has_serialized_data(ptr noundef %21, i1 noundef zeroext %28)
  %29 = load ptr, ptr %6, align 8, !tbaa !57
  %30 = getelementptr inbounds nuw %struct._phar_entry_info, ptr %29, i32 0, i32 6
  %31 = getelementptr inbounds nuw %struct._phar_metadata_tracker, ptr %30, i32 0, i32 1
  %32 = load ptr, ptr %31, align 8, !tbaa !76
  store ptr %32, ptr %8, align 8, !tbaa !69
  %33 = load ptr, ptr %8, align 8, !tbaa !69
  %34 = icmp ne ptr %33, null
  br i1 %34, label %35, label %39

35:                                               ; preds = %3
  %36 = load ptr, ptr %8, align 8, !tbaa !69
  %37 = getelementptr inbounds nuw %struct._zend_string, ptr %36, i32 0, i32 2
  %38 = load i64, ptr %37, align 8, !tbaa !48
  br label %40

39:                                               ; preds = %3
  br label %40

40:                                               ; preds = %39, %35
  %41 = phi i64 [ %38, %35 ], [ 0, %39 ]
  %42 = trunc i64 %41 to i32
  %43 = load ptr, ptr %6, align 8, !tbaa !57
  %44 = getelementptr inbounds nuw %struct._phar_entry_info, ptr %43, i32 0, i32 2
  store i32 %42, ptr %44, align 8, !tbaa !41
  %45 = load ptr, ptr %6, align 8, !tbaa !57
  %46 = getelementptr inbounds nuw %struct._phar_entry_info, ptr %45, i32 0, i32 0
  store i32 %42, ptr %46, align 8, !tbaa !42
  %47 = load ptr, ptr %6, align 8, !tbaa !57
  %48 = getelementptr inbounds nuw %struct._phar_entry_info, ptr %47, i32 0, i32 12
  %49 = load ptr, ptr %48, align 8, !tbaa !79
  %50 = icmp ne ptr %49, null
  br i1 %50, label %51, label %61

51:                                               ; preds = %40
  %52 = load ptr, ptr %6, align 8, !tbaa !57
  %53 = getelementptr inbounds nuw %struct._phar_entry_info, ptr %52, i32 0, i32 8
  %54 = load i32, ptr %53, align 8, !tbaa !53
  %55 = icmp eq i32 %54, 2
  br i1 %55, label %56, label %61

56:                                               ; preds = %51
  %57 = load ptr, ptr %6, align 8, !tbaa !57
  %58 = getelementptr inbounds nuw %struct._phar_entry_info, ptr %57, i32 0, i32 12
  %59 = load ptr, ptr %58, align 8, !tbaa !79
  %60 = call i32 @_php_stream_free(ptr noundef %59, i32 noundef 3)
  br label %61

61:                                               ; preds = %56, %51, %40
  %62 = load ptr, ptr %6, align 8, !tbaa !57
  %63 = getelementptr inbounds nuw %struct._phar_entry_info, ptr %62, i32 0, i32 8
  store i32 2, ptr %63, align 8, !tbaa !53
  %64 = load ptr, ptr %6, align 8, !tbaa !57
  %65 = getelementptr inbounds nuw %struct._phar_entry_info, ptr %64, i32 0, i32 21
  %66 = load i16, ptr %65, align 2
  %67 = and i16 %66, -3
  %68 = or i16 %67, 2
  store i16 %68, ptr %65, align 2
  %69 = call ptr @_php_stream_fopen_tmpfile(i32 noundef 0)
  %70 = load ptr, ptr %6, align 8, !tbaa !57
  %71 = getelementptr inbounds nuw %struct._phar_entry_info, ptr %70, i32 0, i32 12
  store ptr %69, ptr %71, align 8, !tbaa !79
  %72 = load ptr, ptr %6, align 8, !tbaa !57
  %73 = getelementptr inbounds nuw %struct._phar_entry_info, ptr %72, i32 0, i32 9
  store i64 0, ptr %73, align 8, !tbaa !51
  %74 = load ptr, ptr %6, align 8, !tbaa !57
  %75 = getelementptr inbounds nuw %struct._phar_entry_info, ptr %74, i32 0, i32 10
  store i64 0, ptr %75, align 8, !tbaa !52
  %76 = load ptr, ptr %6, align 8, !tbaa !57
  %77 = getelementptr inbounds nuw %struct._phar_entry_info, ptr %76, i32 0, i32 12
  %78 = load ptr, ptr %77, align 8, !tbaa !79
  %79 = icmp eq ptr %78, null
  br i1 %79, label %80, label %83

80:                                               ; preds = %61
  %81 = load ptr, ptr %7, align 8, !tbaa !22
  %82 = call i64 (ptr, i64, ptr, ...) @zend_spprintf(ptr noundef %81, i64 noundef 0, ptr noundef @.str.25)
  store i32 -1, ptr %4, align 4
  store i32 1, ptr %9, align 4
  br label %118

83:                                               ; preds = %61
  %84 = load ptr, ptr %8, align 8, !tbaa !69
  %85 = icmp ne ptr %84, null
  br i1 %85, label %86, label %117

86:                                               ; preds = %83
  %87 = load ptr, ptr %8, align 8, !tbaa !69
  %88 = getelementptr inbounds nuw %struct._zend_string, ptr %87, i32 0, i32 2
  %89 = load i64, ptr %88, align 8, !tbaa !48
  %90 = load ptr, ptr %6, align 8, !tbaa !57
  %91 = getelementptr inbounds nuw %struct._phar_entry_info, ptr %90, i32 0, i32 12
  %92 = load ptr, ptr %91, align 8, !tbaa !79
  %93 = load ptr, ptr %8, align 8, !tbaa !69
  %94 = getelementptr inbounds nuw %struct._zend_string, ptr %93, i32 0, i32 3
  %95 = getelementptr inbounds [1 x i8], ptr %94, i64 0, i64 0
  %96 = load ptr, ptr %8, align 8, !tbaa !69
  %97 = getelementptr inbounds nuw %struct._zend_string, ptr %96, i32 0, i32 2
  %98 = load i64, ptr %97, align 8, !tbaa !48
  %99 = call i64 @_php_stream_write(ptr noundef %92, ptr noundef %95, i64 noundef %98)
  %100 = icmp ne i64 %89, %99
  br i1 %100, label %101, label %117

101:                                              ; preds = %86
  %102 = load ptr, ptr %7, align 8, !tbaa !22
  %103 = load ptr, ptr %6, align 8, !tbaa !57
  %104 = getelementptr inbounds nuw %struct._phar_entry_info, ptr %103, i32 0, i32 7
  %105 = load ptr, ptr %104, align 8, !tbaa !47
  %106 = getelementptr inbounds nuw %struct._zend_string, ptr %105, i32 0, i32 3
  %107 = getelementptr inbounds [1 x i8], ptr %106, i64 0, i64 0
  %108 = call i64 (ptr, i64, ptr, ...) @zend_spprintf(ptr noundef %102, i64 noundef 0, ptr noundef @.str.47, ptr noundef %107)
  %109 = load ptr, ptr %6, align 8, !tbaa !57
  %110 = getelementptr inbounds nuw %struct._phar_entry_info, ptr %109, i32 0, i32 16
  %111 = load ptr, ptr %110, align 8, !tbaa !38
  %112 = getelementptr inbounds nuw %struct._phar_archive_data, ptr %111, i32 0, i32 8
  %113 = load ptr, ptr %6, align 8, !tbaa !57
  %114 = getelementptr inbounds nuw %struct._phar_entry_info, ptr %113, i32 0, i32 7
  %115 = load ptr, ptr %114, align 8, !tbaa !47
  %116 = call i32 @zend_hash_del(ptr noundef %112, ptr noundef %115)
  store i32 2, ptr %4, align 4
  store i32 1, ptr %9, align 4
  br label %118

117:                                              ; preds = %86, %83
  store i32 0, ptr %4, align 4
  store i32 1, ptr %9, align 4
  br label %118

118:                                              ; preds = %117, %101, %80
  call void @llvm.lifetime.end.p0(i64 8, ptr %8) #14
  %119 = load i32, ptr %4, align 4
  ret i32 %119
}