; Function Attrs: nounwind uwtable
define internal fastcc range(i32 -1, 3) i32 @phar_tar_setmetadata(ptr noundef %0, ptr noundef %1, ptr noundef %2) unnamed_addr #5 {
  %4 = getelementptr inbounds nuw i8, ptr %1, i64 24
  %5 = getelementptr inbounds nuw i8, ptr %1, i64 146
  %6 = load i16, ptr %5, align 2
  %7 = and i16 %6, 256
  %8 = icmp ne i16 %7, 0
  tail call void @phar_metadata_tracker_copy(ptr noundef nonnull %4, ptr noundef %0, i1 noundef zeroext %8) #15
  %9 = load i16, ptr %5, align 2
  %10 = and i16 %9, 256
  %11 = icmp ne i16 %10, 0
  tail call void @phar_metadata_tracker_try_ensure_has_serialized_data(ptr noundef nonnull %4, i1 noundef zeroext %11) #15
  %12 = getelementptr inbounds nuw i8, ptr %1, i64 40
  %13 = load ptr, ptr %12, align 8, !tbaa !44
  %.not = icmp eq ptr %13, null
  br i1 %.not, label %18, label %14

14:                                               ; preds = %3
  %15 = getelementptr inbounds nuw i8, ptr %13, i64 16
  %16 = load i64, ptr %15, align 8, !tbaa !36
  %17 = trunc i64 %16 to i32
  br label %18

18:                                               ; preds = %3, %14
  %19 = phi i32 [ %17, %14 ], [ 0, %3 ]
  %20 = getelementptr inbounds nuw i8, ptr %1, i64 8
  store i32 %19, ptr %20, align 8, !tbaa !57
  store i32 %19, ptr %1, align 8, !tbaa !39
  %21 = getelementptr inbounds nuw i8, ptr %1, i64 88
  %22 = load ptr, ptr %21, align 8, !tbaa !56
  %.not32 = icmp eq ptr %22, null
  br i1 %.not32, label %29, label %23

23:                                               ; preds = %18
  %24 = getelementptr inbounds nuw i8, ptr %1, i64 56
  %25 = load i32, ptr %24, align 8, !tbaa !55
  %26 = icmp eq i32 %25, 2
  br i1 %26, label %27, label %29

27:                                               ; preds = %23
  %28 = tail call i32 @_php_stream_free(ptr noundef nonnull %22, i32 noundef 3) #15
  br label %29

29:                                               ; preds = %27, %23, %18
  %30 = getelementptr inbounds nuw i8, ptr %1, i64 56
  store i32 2, ptr %30, align 8, !tbaa !55
  %31 = load i16, ptr %5, align 2
  %32 = or i16 %31, 2
  store i16 %32, ptr %5, align 2
  %33 = tail call ptr @_php_stream_fopen_tmpfile(i32 noundef 0) #15
  store ptr %33, ptr %21, align 8, !tbaa !56
  %34 = getelementptr inbounds nuw i8, ptr %1, i64 64
  %35 = icmp eq ptr %33, null
  tail call void @llvm.memset.p0.i64(ptr noundef nonnull align 8 dereferenceable(16) %34, i8 0, i64 16, i1 false)
  br i1 %35, label %36, label %38

36:                                               ; preds = %29
  %37 = tail call i64 (ptr, i64, ptr, ...) @zend_spprintf(ptr noundef %2, i64 noundef 0, ptr noundef nonnull @.str.25) #15
  br label %54

38:                                               ; preds = %29
  br i1 %.not, label %54, label %39

39:                                               ; preds = %38
  %40 = getelementptr inbounds nuw i8, ptr %13, i64 16
  %41 = load i64, ptr %40, align 8, !tbaa !36
  %42 = getelementptr inbounds nuw i8, ptr %13, i64 24
  %43 = tail call i64 @_php_stream_write(ptr noundef nonnull %33, ptr noundef nonnull %42, i64 noundef %41) #15
  %.not33 = icmp eq i64 %41, %43
  br i1 %.not33, label %54, label %44

44:                                               ; preds = %39
  %45 = getelementptr inbounds nuw i8, ptr %1, i64 48
  %46 = load ptr, ptr %45, align 8, !tbaa !42
  %47 = getelementptr inbounds nuw i8, ptr %46, i64 24
  %48 = tail call i64 (ptr, i64, ptr, ...) @zend_spprintf(ptr noundef %2, i64 noundef 0, ptr noundef nonnull @.str.47, ptr noundef nonnull %47) #15
  %49 = getelementptr inbounds nuw i8, ptr %1, i64 120
  %50 = load ptr, ptr %49, align 8, !tbaa !43
  %51 = getelementptr inbounds nuw i8, ptr %50, i64 64
  %52 = load ptr, ptr %45, align 8, !tbaa !42
  %53 = tail call i32 @zend_hash_del(ptr noundef nonnull %51, ptr noundef %52) #15
  br label %54

54:                                               ; preds = %38, %39, %44, %36
  %.0 = phi i32 [ -1, %36 ], [ 2, %44 ], [ 0, %39 ], [ 0, %38 ]
  ret i32 %.0
}